; Function Attrs: mustprogress uwtable
define void @uregex_setStackLimit_75(ptr noundef readonly %regexp2, i32 noundef %limit, ptr noundef %status) local_unnamed_addr #5 {
entry:
  %0 = load i32, ptr %status, align 4
  %cmp.i.i = icmp slt i32 %0, 1
  br i1 %cmp.i.i, label %if.end.i, label %if.end

if.end.i:                                         ; preds = %entry
  %cmp.i = icmp eq ptr %regexp2, null
  br i1 %cmp.i, label %return.sink.split.i, label %lor.lhs.false.i

lor.lhs.false.i:                                  ; preds = %if.end.i
  %1 = load i32, ptr %regexp2, align 8
  %cmp1.not.i = icmp eq i32 %1, 1919252592
  br i1 %cmp1.not.i, label %if.then, label %return.sink.split.i

return.sink.split.i:                              ; preds = %lor.lhs.false.i, %if.end.i
  store i32 1, ptr %status, align 4
  br label %if.end

if.then:                                          ; preds = %lor.lhs.false.i
  %fMatcher = getelementptr inbounds i8, ptr %regexp2, i64 40
  %2 = load ptr, ptr %fMatcher, align 8
  tail call void @_ZN6icu_7512RegexMatcher13setStackLimitEiR10UErrorCode(ptr noundef nonnull align 8 dereferenceable(336) %2, i32 noundef %limit, ptr noundef nonnull align 4 dereferenceable(4) %status)
  br label %if.end

if.end:                                           ; preds = %return.sink.split.i, %entry, %if.then
  ret void
}